; Function Attrs: mustprogress uwtable
define hidden noundef zeroext i1 @_Z32hb_ot_layout_has_machine_kerningP9hb_face_t(ptr noundef %0) local_unnamed_addr #0 {
  %2 = getelementptr inbounds i8, ptr %0, i64 264
  %3 = tail call noundef ptr @_ZNK16hb_lazy_loader_tIN2OT4kernE22hb_table_lazy_loader_tIS1_Lj23ELb1EE9hb_face_tLj23E9hb_blob_tE10get_storedEv(ptr noundef nonnull align 8 dereferenceable(8) %2)
  %4 = getelementptr inbounds i8, ptr %3, i64 16
  %5 = load ptr, ptr %4, align 8
  %6 = getelementptr inbounds i8, ptr %3, i64 24
  %7 = load i32, ptr %6, align 8
  %8 = icmp ult i32 %7, 4
  %spec.select.i.i.i.i.i = select i1 %8, ptr @_hb_NullPool, ptr %5
  %9 = tail call noundef zeroext i1 @_ZNK2OT4kern17has_state_machineEv(ptr noundef nonnull align 1 dereferenceable(30) %spec.select.i.i.i.i.i)
  ret i1 %9
}